target datalayout = "e-m:e-p270:32:32-p271:32:32-p272:64:64-i64:64-i128:128-f80:128-n8:16:32:64-S128"
target triple = "x86_64-pc-linux-gnu"

%"class.std::__cxx11::basic_string" = type { %"struct.std::__cxx11::basic_string<char>::_Alloc_hider", i64, %union.anon }
%"struct.std::__cxx11::basic_string<char>::_Alloc_hider" = type { ptr }
%union.anon = type { i64, [8 x i8] }
%"class.std::allocator" = type { i8 }

@.str.34 = private unnamed_addr constant [26 x i8] c"Failed to get card index_\00", align 1

; Function Attrs: mustprogress uwtable
define noundef i32 @_ZN10open_spiel9solitaire12GetCardIndexENS0_8RankTypeENS0_8SuitTypeE(i32 noundef %0, i32 noundef %1) #4 personality ptr @__gxx_personality_v0 {
  %3 = alloca i32, align 4
  %4 = alloca i32, align 4
  %5 = alloca i32, align 4
  %6 = alloca %"class.std::__cxx11::basic_string", align 8
  %7 = alloca %"class.std::allocator", align 1
  %8 = alloca ptr, align 8
  %9 = alloca i32, align 4
  store i32 %0, ptr %4, align 4
  store i32 %1, ptr %5, align 4
  %10 = load i32, ptr %4, align 4
  %11 = icmp eq i32 %10, 14
  br i1 %11, label %15, label %12

12:                                               ; preds = %2
  %13 = load i32, ptr %5, align 4
  %14 = icmp eq i32 %13, 5
  br i1 %14, label %15, label %16

15:                                               ; preds = %12, %2
  store i32 99, ptr %3, align 4
  br label %47

16:                                               ; preds = %12
  %17 = load i32, ptr %4, align 4
  %18 = icmp eq i32 %17, 0
  br i1 %18, label %19, label %41

19:                                               ; preds = %16
  %20 = load i32, ptr %5, align 4
  %21 = icmp eq i32 %20, 0
  br i1 %21, label %22, label %23

22:                                               ; preds = %19
  store i32 -1, ptr %3, align 4
  br label %47

23:                                               ; preds = %19
  %24 = load i32, ptr %5, align 4
  switch i32 %24, label %29 [
    i32 1, label %25
    i32 2, label %26
    i32 3, label %27
    i32 4, label %28
  ]

25:                                               ; preds = %23
  store i32 -5, ptr %3, align 4
  br label %47

26:                                               ; preds = %23
  store i32 -4, ptr %3, align 4
  br label %47

27:                                               ; preds = %23
  store i32 -3, ptr %3, align 4
  br label %47

28:                                               ; preds = %23
  store i32 -2, ptr %3, align 4
  br label %47

29:                                               ; preds = %23
  call void @_ZNSaIcEC1Ev(ptr noundef nonnull align 1 dereferenceable(1) %7) #3
  invoke void @_ZNSt7__cxx1112basic_stringIcSt11char_traitsIcESaIcEEC2IS3_EEPKcRKS3_(ptr noundef nonnull align 8 dereferenceable(32) %6, ptr noundef @.str.34, ptr noundef nonnull align 1 dereferenceable(1) %7)
          to label %30 unwind label %32

30:                                               ; preds = %29
  invoke void @_ZN10open_spiel15SpielFatalErrorERKNSt7__cxx1112basic_stringIcSt11char_traitsIcESaIcEEE(ptr noundef nonnull align 8 dereferenceable(32) %6) #16
          to label %31 unwind label %36

31:                                               ; preds = %30
  unreachable

32:                                               ; preds = %29
  %33 = landingpad { ptr, i32 }
          cleanup
  %34 = extractvalue { ptr, i32 } %33, 0
  store ptr %34, ptr %8, align 8
  %35 = extractvalue { ptr, i32 } %33, 1
  store i32 %35, ptr %9, align 4
  br label %40

36:                                               ; preds = %30
  %37 = landingpad { ptr, i32 }
          cleanup
  %38 = extractvalue { ptr, i32 } %37, 0
  store ptr %38, ptr %8, align 8
  %39 = extractvalue { ptr, i32 } %37, 1
  store i32 %39, ptr %9, align 4
  call void @_ZNSt7__cxx1112basic_stringIcSt11char_traitsIcESaIcEED1Ev(ptr noundef nonnull align 8 dereferenceable(32) %6) #3
  br label %40

40:                                               ; preds = %36, %32
  call void @_ZNSaIcED1Ev(ptr noundef nonnull align 1 dereferenceable(1) %7) #3
  br label %49

41:                                               ; preds = %16
  %42 = load i32, ptr %5, align 4
  %43 = sub nsw i32 %42, 1
  %44 = mul nsw i32 %43, 13
  %45 = load i32, ptr %4, align 4
  %46 = add nsw i32 %44, %45
  store i32 %46, ptr %3, align 4
  br label %47

47:                                               ; preds = %41, %28, %27, %26, %25, %22, %15
  %48 = load i32, ptr %3, align 4
  ret i32 %48

49:                                               ; preds = %40
  %50 = load ptr, ptr %8, align 8
  %51 = load i32, ptr %9, align 4
  %52 = insertvalue { ptr, i32 } poison, ptr %50, 0
  %53 = insertvalue { ptr, i32 } %52, i32 %51, 1
  resume { ptr, i32 } %53
}