; Function Attrs: mustprogress uwtable
define noundef i32 @_ZN10open_spiel9solitaire12GetCardIndexENS0_8RankTypeENS0_8SuitTypeE(i32 noundef %0, i32 noundef %1) local_unnamed_addr #3 personality ptr @__gxx_personality_v0 {
  %3 = alloca %"class.std::__cxx11::basic_string", align 8
  %4 = alloca %"class.std::allocator", align 1
  %5 = icmp eq i32 %0, 14
  %6 = icmp eq i32 %1, 5
  %or.cond = or i1 %5, %6
  br i1 %or.cond, label %24, label %7

7:                                                ; preds = %2
  %8 = icmp eq i32 %0, 0
  br i1 %8, label %9, label %19

9:                                                ; preds = %7
  %10 = icmp ult i32 %1, 5
  br i1 %10, label %switch.lookup, label %11

11:                                               ; preds = %9
  call void @_ZNSaIcEC1Ev(ptr noundef nonnull align 1 dereferenceable(1) %4) #31
  invoke void @_ZNSt7__cxx1112basic_stringIcSt11char_traitsIcESaIcEEC2IS3_EEPKcRKS3_(ptr noundef nonnull align 8 dereferenceable(32) %3, ptr noundef nonnull @.str.34, ptr noundef nonnull align 1 dereferenceable(1) %4)
          to label %12 unwind label %14

12:                                               ; preds = %11
  invoke void @_ZN10open_spiel15SpielFatalErrorERKNSt7__cxx1112basic_stringIcSt11char_traitsIcESaIcEEE(ptr noundef nonnull align 8 dereferenceable(32) %3) #30
          to label %13 unwind label %16

13:                                               ; preds = %12
  unreachable

14:                                               ; preds = %11
  %15 = landingpad { ptr, i32 }
          cleanup
  br label %18

16:                                               ; preds = %12
  %17 = landingpad { ptr, i32 }
          cleanup
  call void @_ZNSt7__cxx1112basic_stringIcSt11char_traitsIcESaIcEED1Ev(ptr noundef nonnull align 8 dereferenceable(32) %3) #31
  br label %18

18:                                               ; preds = %16, %14
  %.pn = phi { ptr, i32 } [ %17, %16 ], [ %15, %14 ]
  call void @_ZNSaIcED1Ev(ptr noundef nonnull align 1 dereferenceable(1) %4) #31
  resume { ptr, i32 } %.pn

19:                                               ; preds = %7
  %20 = mul i32 %1, 13
  %21 = add i32 %0, -13
  %22 = add i32 %21, %20
  br label %24

switch.lookup:                                    ; preds = %9
  %23 = zext nneg i32 %1 to i64
  %switch.gep = getelementptr inbounds [5 x i32], ptr @switch.table._ZN10open_spiel9solitaire12GetCardIndexENS0_8RankTypeENS0_8SuitTypeE, i64 0, i64 %23
  %switch.load = load i32, ptr %switch.gep, align 4
  br label %24

24:                                               ; preds = %switch.lookup, %2, %19
  %.011 = phi i32 [ %22, %19 ], [ 99, %2 ], [ %switch.load, %switch.lookup ]
  ret i32 %.011
}